target datalayout = "e-m:e-p270:32:32-p271:32:32-p272:64:64-i64:64-i128:128-f80:128-n8:16:32:64-S128"
target triple = "x86_64-pc-linux-gnu"

%struct._value_string_ext = type { ptr, i32, i32, ptr, ptr }
%struct._gsm_a_tap_rec_t = type { i8, i8, i32 }
%struct._address = type { i32, i32, ptr, ptr }
%struct._packet_info = type { ptr, ptr, i32, i32, %struct.nstime_t, %struct.nstime_t, %struct.nstime_t, i8, ptr, ptr, ptr, ptr, %struct._address, %struct._address, %struct._address, %struct._address, %struct._address, %struct._address, i32, ptr, i8, [3 x i8], %struct.anon, i32, i32, i32, i32, ptr, i8, ptr, ptr, i16, i16, i32, i32, i16, i32, i32, ptr, ptr, ptr, i8, i8, i16, i16, i16, i32, i16, i16, ptr, ptr, ptr, ptr, ptr, i32, i32 }
%struct.nstime_t = type { i64, i32 }
%struct.anon = type { i8, [3 x i8] }
%struct._sccp_msg_info_t = type { i32, i32, i32, %union.anon }
%union.anon = type { %struct.anon.0 }
%struct.anon.0 = type { ptr, ptr, ptr, ptr, ptr }
%struct._sccp_assoc_info_t = type { i32, i32, i32, i8, i8, i8, i8, ptr, ptr, i32, ptr, ptr, ptr, ptr, i32 }

@cell_discriminator = internal global i8 15, align 1
@g_tree = internal global ptr null, align 8
@hf_gsm_a_bssmap_msg_type = internal global i32 0, align 4
@gsm_a_bssmap_msg_strings_ext = internal global %struct._value_string_ext { ptr @_try_val_to_str_ext_init, i32 0, i32 121, ptr @gsm_a_bssmap_msg_strings, ptr @.str.761 }, align 8
@hf_gsm_a_bssmap_message_elements = internal global i32 0, align 4
@.str.476 = private unnamed_addr constant [17 x i8] c"Message Elements\00", align 1
@ett_bssmap_msg = internal global i32 0, align 4
@ett_gsm_bssmap_msg = internal global [122 x i32] zeroinitializer, align 16
@proto_a_bssmap = internal global i32 0, align 4
@dissect_bssmap.tap_rec = internal global [4 x %struct._gsm_a_tap_rec_t] zeroinitializer, align 16
@dissect_bssmap.tap_p = internal global ptr null, align 8
@dissect_bssmap.tap_current = internal global i32 0, align 4
@.str.1114 = private unnamed_addr constant [10 x i8] c"(BSSMAP) \00", align 1
@.str.1115 = private unnamed_addr constant [16 x i8] c"BSSMAP (0x%02x)\00", align 1
@.str.1116 = private unnamed_addr constant [56 x i8] c"GSM A-I/F BSSMAP - Unknown BSSMAP Message Type (0x%02x)\00", align 1
@.str.1117 = private unnamed_addr constant [22 x i8] c"GSM A-I/F BSSMAP - %s\00", align 1
@.str.1118 = private unnamed_addr constant [4 x i8] c"%s \00", align 1
@.str.1119 = private unnamed_addr constant [16 x i8] c"Message Type %s\00", align 1
@gsm_a_tap = external global i32, align 4

; Function Attrs: null_pointer_is_valid sspstrong uwtable
define internal i32 @dissect_bssmap(ptr noundef %0, ptr noundef %1, ptr noundef %2, ptr noundef %3) #1 {
  %5 = alloca i32, align 4
  %6 = alloca ptr, align 8
  %7 = alloca ptr, align 8
  %8 = alloca ptr, align 8
  %9 = alloca ptr, align 8
  %10 = alloca i8, align 1
  %11 = alloca i32, align 4
  %12 = alloca i32, align 4
  %13 = alloca i32, align 4
  %14 = alloca i32, align 4
  %15 = alloca ptr, align 8
  %16 = alloca ptr, align 8
  %17 = alloca ptr, align 8
  %18 = alloca ptr, align 8
  %19 = alloca i32, align 4
  store ptr %0, ptr %6, align 8
  store ptr %1, ptr %7, align 8
  store ptr %2, ptr %8, align 8
  store ptr %3, ptr %9, align 8
  call void @llvm.lifetime.start.p0(i64 1, ptr %10) #5
  call void @llvm.lifetime.start.p0(i64 4, ptr %11) #5
  call void @llvm.lifetime.start.p0(i64 4, ptr %12) #5
  call void @llvm.lifetime.start.p0(i64 4, ptr %13) #5
  call void @llvm.lifetime.start.p0(i64 4, ptr %14) #5
  call void @llvm.lifetime.start.p0(i64 8, ptr %15) #5
  store ptr null, ptr %15, align 8
  call void @llvm.lifetime.start.p0(i64 8, ptr %16) #5
  store ptr null, ptr %16, align 8
  call void @llvm.lifetime.start.p0(i64 8, ptr %17) #5
  call void @llvm.lifetime.start.p0(i64 8, ptr %18) #5
  %20 = load ptr, ptr %9, align 8
  store ptr %20, ptr %18, align 8
  %21 = load ptr, ptr %18, align 8
  %22 = icmp ne ptr %21, null
  br i1 %22, label %23, label %29

23:                                               ; preds = %4
  %24 = load ptr, ptr %18, align 8
  %25 = getelementptr inbounds nuw %struct._sccp_msg_info_t, ptr %24, i32 0, i32 3
  %26 = getelementptr inbounds nuw %struct.anon.0, ptr %25, i32 0, i32 3
  %27 = load ptr, ptr %26, align 8
  %28 = icmp ne ptr %27, null
  br i1 %28, label %30, label %29

29:                                               ; preds = %23, %4
  store ptr null, ptr %18, align 8
  br label %30

30:                                               ; preds = %29, %23
  %31 = load ptr, ptr %7, align 8
  %32 = getelementptr inbounds nuw %struct._packet_info, ptr %31, i32 0, i32 1
  %33 = load ptr, ptr %32, align 8
  call void @col_append_str(ptr noundef %33, i32 noundef 25, ptr noundef @.str.1114)
  %34 = load i32, ptr @dissect_bssmap.tap_current, align 4
  %35 = add i32 %34, 1
  store i32 %35, ptr @dissect_bssmap.tap_current, align 4
  %36 = load i32, ptr @dissect_bssmap.tap_current, align 4
  %37 = icmp uge i32 %36, 4
  br i1 %37, label %38, label %39

38:                                               ; preds = %30
  store i32 0, ptr @dissect_bssmap.tap_current, align 4
  br label %39

39:                                               ; preds = %38, %30
  %40 = load i32, ptr @dissect_bssmap.tap_current, align 4
  %41 = zext i32 %40 to i64
  %42 = getelementptr [4 x %struct._gsm_a_tap_rec_t], ptr @dissect_bssmap.tap_rec, i64 0, i64 %41
  store ptr %42, ptr @dissect_bssmap.tap_p, align 8
  store i32 0, ptr %11, align 4
  %43 = load i32, ptr %11, align 4
  store i32 %43, ptr %12, align 4
  %44 = load ptr, ptr %8, align 8
  store ptr %44, ptr @g_tree, align 8
  %45 = load ptr, ptr %6, align 8
  %46 = call i32 @tvb_reported_length(ptr noundef %45)
  store i32 %46, ptr %13, align 4
  %47 = load ptr, ptr %6, align 8
  %48 = load i32, ptr %11, align 4
  %49 = add i32 %48, 1
  store i32 %49, ptr %11, align 4
  %50 = call zeroext i8 @tvb_get_uint8(ptr noundef %47, i32 noundef %48)
  store i8 %50, ptr %10, align 1
  %51 = load i8, ptr %10, align 1
  %52 = zext i8 %51 to i32
  %53 = call ptr @try_val_to_str_idx_ext(i32 noundef %52, ptr noundef @gsm_a_bssmap_msg_strings_ext, ptr noundef %14)
  store ptr %53, ptr %17, align 8
  %54 = load ptr, ptr %18, align 8
  %55 = icmp ne ptr %54, null
  br i1 %55, label %56, label %71

56:                                               ; preds = %39
  %57 = load ptr, ptr %18, align 8
  %58 = getelementptr inbounds nuw %struct._sccp_msg_info_t, ptr %57, i32 0, i32 3
  %59 = getelementptr inbounds nuw %struct.anon.0, ptr %58, i32 0, i32 0
  %60 = load ptr, ptr %59, align 8
  %61 = icmp ne ptr %60, null
  br i1 %61, label %71, label %62

62:                                               ; preds = %56
  %63 = call ptr @wmem_file_scope()
  %64 = load i8, ptr %10, align 1
  %65 = zext i8 %64 to i32
  %66 = call ptr @val_to_str_ext(i32 noundef %65, ptr noundef @gsm_a_bssmap_msg_strings_ext, ptr noundef @.str.1115)
  %67 = call noalias ptr @wmem_strdup(ptr noundef %63, ptr noundef %66)
  %68 = load ptr, ptr %18, align 8
  %69 = getelementptr inbounds nuw %struct._sccp_msg_info_t, ptr %68, i32 0, i32 3
  %70 = getelementptr inbounds nuw %struct.anon.0, ptr %69, i32 0, i32 0
  store ptr %67, ptr %70, align 8
  br label %71

71:                                               ; preds = %62, %56, %39
  %72 = load ptr, ptr %17, align 8
  %73 = icmp eq ptr %72, null
  br i1 %73, label %80, label %74

74:                                               ; preds = %71
  %75 = load i32, ptr %14, align 4
  %76 = icmp slt i32 %75, 0
  br i1 %76, label %80, label %77

77:                                               ; preds = %74
  %78 = load i32, ptr %14, align 4
  %79 = icmp sge i32 %78, 122
  br i1 %79, label %80, label %91

80:                                               ; preds = %77, %74, %71
  %81 = load ptr, ptr %8, align 8
  %82 = load i32, ptr @proto_a_bssmap, align 4
  %83 = load ptr, ptr %6, align 8
  %84 = load i32, ptr %13, align 4
  %85 = load i8, ptr %10, align 1
  %86 = zext i8 %85 to i32
  %87 = call ptr (ptr, i32, ptr, i32, i32, ptr, ...) @proto_tree_add_protocol_format(ptr noundef %81, i32 noundef %82, ptr noundef %83, i32 noundef 0, i32 noundef %84, ptr noundef @.str.1116, i32 noundef %86)
  store ptr %87, ptr %15, align 8
  %88 = load ptr, ptr %15, align 8
  %89 = load i32, ptr @ett_bssmap_msg, align 4
  %90 = call ptr @proto_item_add_subtree(ptr noundef %88, i32 noundef %89)
  store ptr %90, ptr %16, align 8
  br label %115

91:                                               ; preds = %77
  %92 = load ptr, ptr %8, align 8
  %93 = load i32, ptr @proto_a_bssmap, align 4
  %94 = load ptr, ptr %6, align 8
  %95 = load ptr, ptr %17, align 8
  %96 = call ptr (ptr, i32, ptr, i32, i32, ptr, ...) @proto_tree_add_protocol_format(ptr noundef %92, i32 noundef %93, ptr noundef %94, i32 noundef 0, i32 noundef -1, ptr noundef @.str.1117, ptr noundef %95)
  store ptr %96, ptr %15, align 8
  %97 = load ptr, ptr %15, align 8
  %98 = load i32, ptr %14, align 4
  %99 = sext i32 %98 to i64
  %100 = getelementptr [122 x i32], ptr @ett_gsm_bssmap_msg, i64 0, i64 %99
  %101 = load i32, ptr %100, align 4
  %102 = call ptr @proto_item_add_subtree(ptr noundef %97, i32 noundef %101)
  store ptr %102, ptr %16, align 8
  %103 = load ptr, ptr %7, align 8
  %104 = getelementptr inbounds nuw %struct._packet_info, ptr %103, i32 0, i32 1
  %105 = load ptr, ptr %104, align 8
  %106 = load ptr, ptr %17, align 8
  call void (ptr, i32, ptr, ...) @col_append_fstr(ptr noundef %105, i32 noundef 25, ptr noundef @.str.1118, ptr noundef %106)
  %107 = load ptr, ptr %16, align 8
  %108 = load i32, ptr @hf_gsm_a_bssmap_msg_type, align 4
  %109 = load ptr, ptr %6, align 8
  %110 = load i32, ptr %12, align 4
  %111 = load i8, ptr %10, align 1
  %112 = zext i8 %111 to i32
  %113 = load ptr, ptr %17, align 8
  %114 = call ptr (ptr, i32, ptr, i32, i32, i32, ptr, ...) @proto_tree_add_uint_format(ptr noundef %107, i32 noundef %108, ptr noundef %109, i32 noundef %110, i32 noundef 1, i32 noundef %112, ptr noundef @.str.1119, ptr noundef %113)
  br label %115

115:                                              ; preds = %91, %80
  %116 = load ptr, ptr @dissect_bssmap.tap_p, align 8
  %117 = getelementptr inbounds nuw %struct._gsm_a_tap_rec_t, ptr %116, i32 0, i32 0
  store i8 0, ptr %117, align 4
  %118 = load i8, ptr %10, align 1
  %119 = load ptr, ptr @dissect_bssmap.tap_p, align 8
  %120 = getelementptr inbounds nuw %struct._gsm_a_tap_rec_t, ptr %119, i32 0, i32 1
  store i8 %118, ptr %120, align 1
  %121 = load i32, ptr @gsm_a_tap, align 4
  %122 = load ptr, ptr %7, align 8
  %123 = load ptr, ptr @dissect_bssmap.tap_p, align 8
  call void @tap_queue_packet(i32 noundef %121, ptr noundef %122, ptr noundef %123)
  %124 = load ptr, ptr %17, align 8
  %125 = icmp eq ptr %124, null
  br i1 %125, label %126, label %128

126:                                              ; preds = %115
  %127 = load i32, ptr %13, align 4
  store i32 %127, ptr %5, align 4
  store i32 1, ptr %19, align 4
  br label %204

128:                                              ; preds = %115
  %129 = load i32, ptr %13, align 4
  %130 = load i32, ptr %11, align 4
  %131 = sub i32 %129, %130
  %132 = icmp ule i32 %131, 0
  br i1 %132, label %133, label %135

133:                                              ; preds = %128
  %134 = load i32, ptr %13, align 4
  store i32 %134, ptr %5, align 4
  store i32 1, ptr %19, align 4
  br label %204

135:                                              ; preds = %128
  %136 = load i32, ptr %14, align 4
  %137 = icmp slt i32 %136, 0
  br i1 %137, label %147, label %138

138:                                              ; preds = %135
  %139 = load i32, ptr %14, align 4
  %140 = icmp sge i32 %139, 122
  br i1 %140, label %147, label %141

141:                                              ; preds = %138
  %142 = load i32, ptr %14, align 4
  %143 = sext i32 %142 to i64
  %144 = getelementptr [122 x ptr], ptr @bssmap_msg_fcn, i64 0, i64 %143
  %145 = load ptr, ptr %144, align 8
  %146 = icmp eq ptr %145, null
  br i1 %146, label %147, label %156

147:                                              ; preds = %141, %138, %135
  %148 = load ptr, ptr %16, align 8
  %149 = load i32, ptr @hf_gsm_a_bssmap_message_elements, align 4
  %150 = load ptr, ptr %6, align 8
  %151 = load i32, ptr %11, align 4
  %152 = load i32, ptr %13, align 4
  %153 = load i32, ptr %11, align 4
  %154 = sub i32 %152, %153
  %155 = call ptr (ptr, i32, ptr, i32, i32, ptr, ptr, ...) @proto_tree_add_bytes_format(ptr noundef %148, i32 noundef %149, ptr noundef %150, i32 noundef %151, i32 noundef %154, ptr noundef null, ptr noundef @.str.476)
  br label %202

156:                                              ; preds = %141
  %157 = load ptr, ptr %18, align 8
  %158 = icmp ne ptr %157, null
  br i1 %158, label %159, label %177

159:                                              ; preds = %156
  %160 = load ptr, ptr %18, align 8
  %161 = getelementptr inbounds nuw %struct._sccp_msg_info_t, ptr %160, i32 0, i32 3
  %162 = getelementptr inbounds nuw %struct.anon.0, ptr %161, i32 0, i32 3
  %163 = load ptr, ptr %162, align 8
  %164 = getelementptr inbounds nuw %struct._sccp_assoc_info_t, ptr %163, i32 0, i32 14
  %165 = load i32, ptr %164, align 8
  %166 = and i32 %165, 52480
  %167 = icmp eq i32 %166, 52480
  br i1 %167, label %168, label %177

168:                                              ; preds = %159
  %169 = load ptr, ptr %18, align 8
  %170 = getelementptr inbounds nuw %struct._sccp_msg_info_t, ptr %169, i32 0, i32 3
  %171 = getelementptr inbounds nuw %struct.anon.0, ptr %170, i32 0, i32 3
  %172 = load ptr, ptr %171, align 8
  %173 = getelementptr inbounds nuw %struct._sccp_assoc_info_t, ptr %172, i32 0, i32 14
  %174 = load i32, ptr %173, align 8
  %175 = and i32 %174, 255
  %176 = trunc i32 %175 to i8
  store i8 %176, ptr @cell_discriminator, align 1
  br label %178

177:                                              ; preds = %159, %156
  store i8 -1, ptr @cell_discriminator, align 1
  br label %178

178:                                              ; preds = %177, %168
  %179 = load i32, ptr %14, align 4
  %180 = sext i32 %179 to i64
  %181 = getelementptr [122 x ptr], ptr @bssmap_msg_fcn, i64 0, i64 %180
  %182 = load ptr, ptr %181, align 8
  %183 = load ptr, ptr %6, align 8
  %184 = load ptr, ptr %16, align 8
  %185 = load ptr, ptr %7, align 8
  %186 = load i32, ptr %11, align 4
  %187 = load i32, ptr %13, align 4
  %188 = load i32, ptr %11, align 4
  %189 = sub i32 %187, %188
  call void %182(ptr noundef %183, ptr noundef %184, ptr noundef %185, i32 noundef %186, i32 noundef %189)
  %190 = load ptr, ptr %18, align 8
  %191 = icmp ne ptr %190, null
  br i1 %191, label %192, label %201

192:                                              ; preds = %178
  %193 = load i8, ptr @cell_discriminator, align 1
  %194 = zext i8 %193 to i32
  %195 = or i32 %194, 52720
  %196 = load ptr, ptr %18, align 8
  %197 = getelementptr inbounds nuw %struct._sccp_msg_info_t, ptr %196, i32 0, i32 3
  %198 = getelementptr inbounds nuw %struct.anon.0, ptr %197, i32 0, i32 3
  %199 = load ptr, ptr %198, align 8
  %200 = getelementptr inbounds nuw %struct._sccp_assoc_info_t, ptr %199, i32 0, i32 14
  store i32 %195, ptr %200, align 8
  br label %201

201:                                              ; preds = %192, %178
  br label %202

202:                                              ; preds = %201, %147
  store ptr null, ptr @g_tree, align 8
  %203 = load i32, ptr %13, align 4
  store i32 %203, ptr %5, align 4
  store i32 1, ptr %19, align 4
  br label %204

204:                                              ; preds = %202, %133, %126
  call void @llvm.lifetime.end.p0(i64 8, ptr %18) #5
  call void @llvm.lifetime.end.p0(i64 8, ptr %17) #5
  call void @llvm.lifetime.end.p0(i64 8, ptr %16) #5
  call void @llvm.lifetime.end.p0(i64 8, ptr %15) #5
  call void @llvm.lifetime.end.p0(i64 4, ptr %14) #5
  call void @llvm.lifetime.end.p0(i64 4, ptr %13) #5
  call void @llvm.lifetime.end.p0(i64 4, ptr %12) #5
  call void @llvm.lifetime.end.p0(i64 4, ptr %11) #5
  call void @llvm.lifetime.end.p0(i64 1, ptr %10) #5
  %205 = load i32, ptr %5, align 4
  ret i32 %205
}