; Function Attrs: null_pointer_is_valid sspstrong uwtable
define internal i32 @dissect_bssmap(ptr noundef %0, ptr noundef %1, ptr noundef %2, ptr noundef captures(address) %3) #1 {
  %5 = alloca i32, align 4
  call void @llvm.lifetime.start.p0(i64 4, ptr nonnull %5) #4
  %.not = icmp eq ptr %3, null
  br i1 %.not, label %9, label %6

6:                                                ; preds = %4
  %7 = getelementptr inbounds nuw i8, ptr %3, i64 40
  %8 = load ptr, ptr %7, align 8
  %.not66 = icmp eq ptr %8, null
  br i1 %.not66, label %9, label %10

9:                                                ; preds = %6, %4
  br label %10

10:                                               ; preds = %9, %6
  %.0 = phi ptr [ %3, %6 ], [ null, %9 ]
  %11 = getelementptr inbounds nuw i8, ptr %1, i64 8
  %12 = load ptr, ptr %11, align 8
  tail call void @col_append_str(ptr noundef %12, i32 noundef 25, ptr noundef nonnull @.str.1114)
  %13 = load i32, ptr @dissect_bssmap.tap_current, align 4
  %14 = add i32 %13, 1
  %15 = icmp ugt i32 %14, 3
  %spec.store.select = select i1 %15, i32 0, i32 %14
  store i32 %spec.store.select, ptr @dissect_bssmap.tap_current, align 4
  %16 = zext i32 %spec.store.select to i64
  %17 = getelementptr [4 x %struct._gsm_a_tap_rec_t], ptr @dissect_bssmap.tap_rec, i64 0, i64 %16
  store ptr %17, ptr @dissect_bssmap.tap_p, align 8
  store ptr %2, ptr @g_tree, align 8
  %18 = tail call i32 @tvb_reported_length(ptr noundef %0)
  %19 = tail call zeroext i8 @tvb_get_uint8(ptr noundef %0, i32 noundef 0)
  %20 = zext i8 %19 to i32
  %21 = call ptr @try_val_to_str_idx_ext(i32 noundef %20, ptr noundef nonnull @gsm_a_bssmap_msg_strings_ext, ptr noundef nonnull %5)
  %.not67 = icmp eq ptr %.0, null
  br i1 %.not67, label %29, label %22

22:                                               ; preds = %10
  %23 = getelementptr inbounds nuw i8, ptr %.0, i64 16
  %24 = load ptr, ptr %23, align 8
  %.not68 = icmp eq ptr %24, null
  br i1 %.not68, label %25, label %29

25:                                               ; preds = %22
  %26 = call ptr @wmem_file_scope()
  %27 = call ptr @val_to_str_ext(i32 noundef %20, ptr noundef nonnull @gsm_a_bssmap_msg_strings_ext, ptr noundef nonnull @.str.1115)
  %28 = call noalias ptr @wmem_strdup(ptr noundef %26, ptr noundef %27)
  store ptr %28, ptr %23, align 8
  br label %29

29:                                               ; preds = %25, %22, %10
  %30 = icmp eq ptr %21, null
  %31 = load i32, ptr %5, align 4
  %32 = icmp ugt i32 %31, 121
  %or.cond3 = select i1 %30, i1 true, i1 %32
  %33 = load i32, ptr @proto_a_bssmap, align 4
  br i1 %or.cond3, label %34, label %38

34:                                               ; preds = %29
  %35 = call ptr (ptr, i32, ptr, i32, i32, ptr, ...) @proto_tree_add_protocol_format(ptr noundef %2, i32 noundef %33, ptr noundef %0, i32 noundef 0, i32 noundef %18, ptr noundef nonnull @.str.1116, i32 noundef %20)
  %36 = load i32, ptr @ett_bssmap_msg, align 4
  %37 = call ptr @proto_item_add_subtree(ptr noundef %35, i32 noundef %36)
  br label %48

38:                                               ; preds = %29
  %39 = call ptr (ptr, i32, ptr, i32, i32, ptr, ...) @proto_tree_add_protocol_format(ptr noundef %2, i32 noundef %33, ptr noundef %0, i32 noundef 0, i32 noundef -1, ptr noundef nonnull @.str.1117, ptr noundef nonnull %21)
  %40 = load i32, ptr %5, align 4
  %41 = sext i32 %40 to i64
  %42 = getelementptr [122 x i32], ptr @ett_gsm_bssmap_msg, i64 0, i64 %41
  %43 = load i32, ptr %42, align 4
  %44 = call ptr @proto_item_add_subtree(ptr noundef %39, i32 noundef %43)
  %45 = load ptr, ptr %11, align 8
  call void (ptr, i32, ptr, ...) @col_append_fstr(ptr noundef %45, i32 noundef 25, ptr noundef nonnull @.str.1118, ptr noundef nonnull %21)
  %46 = load i32, ptr @hf_gsm_a_bssmap_msg_type, align 4
  %47 = call ptr (ptr, i32, ptr, i32, i32, i32, ptr, ...) @proto_tree_add_uint_format(ptr noundef %44, i32 noundef %46, ptr noundef %0, i32 noundef 0, i32 noundef 1, i32 noundef %20, ptr noundef nonnull @.str.1119, ptr noundef nonnull %21)
  br label %48

48:                                               ; preds = %38, %34
  %.061 = phi ptr [ %37, %34 ], [ %44, %38 ]
  %49 = load ptr, ptr @dissect_bssmap.tap_p, align 8
  store i8 0, ptr %49, align 4
  %50 = getelementptr inbounds nuw i8, ptr %49, i64 1
  store i8 %19, ptr %50, align 1
  %51 = load i32, ptr @gsm_a_tap, align 4
  call void @tap_queue_packet(i32 noundef %51, ptr noundef %1, ptr noundef %49)
  br i1 %30, label %80, label %52

52:                                               ; preds = %48
  %53 = add i32 %18, -1
  %54 = icmp eq i32 %53, 0
  br i1 %54, label %80, label %55

55:                                               ; preds = %52
  %56 = load i32, ptr %5, align 4
  %or.cond5 = icmp ugt i32 %56, 121
  br i1 %or.cond5, label %62, label %57

57:                                               ; preds = %55
  %58 = zext nneg i32 %56 to i64
  %59 = getelementptr [122 x ptr], ptr @bssmap_msg_fcn, i64 0, i64 %58
  %60 = load ptr, ptr %59, align 8
  %61 = icmp eq ptr %60, null
  br i1 %61, label %62, label %65

62:                                               ; preds = %57, %55
  %63 = load i32, ptr @hf_gsm_a_bssmap_message_elements, align 4
  %64 = call ptr (ptr, i32, ptr, i32, i32, ptr, ptr, ...) @proto_tree_add_bytes_format(ptr noundef %.061, i32 noundef %63, ptr noundef %0, i32 noundef 1, i32 noundef %53, ptr noundef null, ptr noundef nonnull @.str.476)
  br label %79

65:                                               ; preds = %57
  br i1 %.not67, label %.critedge, label %66

66:                                               ; preds = %65
  %67 = getelementptr inbounds nuw i8, ptr %.0, i64 40
  %68 = load ptr, ptr %67, align 8
  %69 = getelementptr inbounds nuw i8, ptr %68, i64 72
  %70 = load i32, ptr %69, align 8
  %71 = and i32 %70, 52480
  %72 = icmp eq i32 %71, 52480
  %73 = trunc i32 %70 to i8
  %storemerge = select i1 %72, i8 %73, i8 -1
  store i8 %storemerge, ptr @cell_discriminator, align 1
  call void %60(ptr noundef %0, ptr noundef %.061, ptr noundef %1, i32 noundef 1, i32 noundef %53)
  %74 = load i8, ptr @cell_discriminator, align 1
  %75 = zext i8 %74 to i32
  %76 = or i32 %75, 52720
  %77 = load ptr, ptr %67, align 8
  %78 = getelementptr inbounds nuw i8, ptr %77, i64 72
  store i32 %76, ptr %78, align 8
  br label %79

.critedge:                                        ; preds = %65
  store i8 -1, ptr @cell_discriminator, align 1
  call void %60(ptr noundef %0, ptr noundef %.061, ptr noundef %1, i32 noundef 1, i32 noundef %53)
  br label %79

79:                                               ; preds = %.critedge, %66, %62
  store ptr null, ptr @g_tree, align 8
  br label %80

80:                                               ; preds = %52, %48, %79
  call void @llvm.lifetime.end.p0(i64 4, ptr nonnull %5) #4
  ret i32 %18
}